(lp0
S'031000000000400006000000200600059000005010039400062000000200800050000010700600000\n'
p1
aS'231576948978423156564198273613859724825714639497362581149235867356987412782641395'
p2
aS'231000000000400006000000200600059000075010039400062000000200800050000010700600000'
p3
aI25
a.